target datalayout = "e-m:e-p270:32:32-p271:32:32-p272:64:64-i64:64-i128:128-f80:128-n8:16:32:64-S128"
target triple = "x86_64-pc-linux-gnu"

%"struct.std::_Rb_tree_header" = type { %"struct.std::_Rb_tree_node_base", i64 }
%"struct.std::_Rb_tree_node_base" = type { i32, ptr, ptr, ptr }
%"struct.casadi::RootfinderMemory" = type { %"struct.casadi::OracleMemory", ptr, ptr, i8, i32 }
%"struct.casadi::OracleMemory" = type { %"struct.casadi::FunctionMemory", ptr, ptr, ptr, ptr, %"struct.casadi::casadi_oracle_data", %"class.std::vector.80" }
%"struct.casadi::FunctionMemory" = type { %"struct.casadi::ProtoFunctionMemory" }
%"struct.casadi::ProtoFunctionMemory" = type { %"class.std::map.75", ptr }
%"class.std::map.75" = type { %"class.std::_Rb_tree.76" }
%"class.std::_Rb_tree.76" = type { %"struct.std::_Rb_tree<std::__cxx11::basic_string<char>, std::pair<const std::__cxx11::basic_string<char>, casadi::FStats>, std::_Select1st<std::pair<const std::__cxx11::basic_string<char>, casadi::FStats>>, std::less<std::__cxx11::basic_string<char>>>::_Rb_tree_impl" }
%"struct.std::_Rb_tree<std::__cxx11::basic_string<char>, std::pair<const std::__cxx11::basic_string<char>, casadi::FStats>, std::_Select1st<std::pair<const std::__cxx11::basic_string<char>, casadi::FStats>>, std::less<std::__cxx11::basic_string<char>>>::_Rb_tree_impl" = type { [8 x i8], %"struct.std::_Rb_tree_header" }
%"struct.casadi::casadi_oracle_data" = type { ptr, ptr, ptr, ptr, ptr }
%"class.std::vector.80" = type { %"struct.std::_Vector_base.81" }
%"struct.std::_Vector_base.81" = type { %"struct.std::_Vector_base<casadi::LocalOracleMemory *, std::allocator<casadi::LocalOracleMemory *>>::_Vector_impl" }
%"struct.std::_Vector_base<casadi::LocalOracleMemory *, std::allocator<casadi::LocalOracleMemory *>>::_Vector_impl" = type { %"struct.std::_Vector_base<casadi::LocalOracleMemory *, std::allocator<casadi::LocalOracleMemory *>>::_Vector_impl_data" }
%"struct.std::_Vector_base<casadi::LocalOracleMemory *, std::allocator<casadi::LocalOracleMemory *>>::_Vector_impl_data" = type { ptr, ptr, ptr }

; Function Attrs: mustprogress uwtable
define noundef i32 @_ZNK6casadi10Rootfinder8init_memEPv(ptr noundef nonnull align 8 dereferenceable(1600) %0, ptr noundef %1) unnamed_addr #6 align 2 {
  %3 = alloca i32, align 4
  %4 = alloca ptr, align 8
  %5 = alloca ptr, align 8
  %6 = alloca ptr, align 8
  store ptr %0, ptr %4, align 8, !tbaa !65
  store ptr %1, ptr %5, align 8, !tbaa !46
  %7 = load ptr, ptr %4, align 8
  %8 = load ptr, ptr %5, align 8, !tbaa !46
  %9 = call noundef i32 @_ZNK6casadi14OracleFunction8init_memEPv(ptr noundef nonnull align 8 dereferenceable(1528) %7, ptr noundef %8)
  %10 = icmp ne i32 %9, 0
  br i1 %10, label %11, label %12

11:                                               ; preds = %2
  store i32 1, ptr %3, align 4
  br label %18

12:                                               ; preds = %2
  call void @llvm.lifetime.start.p0(i64 8, ptr %6) #3
  %13 = load ptr, ptr %5, align 8, !tbaa !46
  store ptr %13, ptr %6, align 8, !tbaa !199
  %14 = load ptr, ptr %6, align 8, !tbaa !199
  %15 = getelementptr inbounds nuw %"struct.casadi::RootfinderMemory", ptr %14, i32 0, i32 3
  store i8 0, ptr %15, align 8, !tbaa !201
  %16 = load ptr, ptr %6, align 8, !tbaa !199
  %17 = getelementptr inbounds nuw %"struct.casadi::RootfinderMemory", ptr %16, i32 0, i32 4
  store i32 1, ptr %17, align 4, !tbaa !219
  store i32 0, ptr %3, align 4
  call void @llvm.lifetime.end.p0(i64 8, ptr %6) #3
  br label %18

18:                                               ; preds = %12, %11
  %19 = load i32, ptr %3, align 4
  ret i32 %19
}